; Function Attrs: mustprogress nounwind uwtable
define dso_local noundef zeroext i1 @_ZNK4node4quic10TLSContext23early_data_was_acceptedEv(ptr nocapture noundef nonnull readonly align 8 dereferenceable(352) %this) local_unnamed_addr #4 align 2 {
entry:
  %early_data_ = getelementptr inbounds i8, ptr %this, i64 345
  %0 = load i8, ptr %early_data_, align 1
  %1 = and i8 %0, 1
  %tobool.not = icmp eq i8 %1, 0
  br i1 %tobool.not, label %land.end, label %land.rhs

land.rhs:                                         ; preds = %entry
  %ssl_ = getelementptr inbounds i8, ptr %this, i64 328
  %2 = load ptr, ptr %ssl_, align 8
  %call2 = tail call i32 @SSL_get_early_data_status(ptr noundef %2) #18
  %cmp = icmp eq i32 %call2, 2
  br label %land.end

land.end:                                         ; preds = %land.rhs, %entry
  %3 = phi i1 [ false, %entry ], [ %cmp, %land.rhs ]
  ret i1 %3
}